target datalayout = "e-m:e-p270:32:32-p271:32:32-p272:64:64-i64:64-i128:128-f80:128-n8:16:32:64-S128"
target triple = "x86_64-pc-linux-gnu"

@.str.2 = private unnamed_addr constant [27 x i8] c"\1B_Ga=T,f=32,s=%u,v=%u%s%s;\00", align 1
@.str.3 = private unnamed_addr constant [5 x i8] c",m=1\00", align 1
@.str.4 = private unnamed_addr constant [1 x i8] zeroinitializer, align 1
@.str.5 = private unnamed_addr constant [5 x i8] c",o=z\00", align 1
@.str.6 = private unnamed_addr constant [9 x i8] c"\1B_Gm=%d;\00", align 1
@stdout = external global ptr, align 8
@.str.7 = private unnamed_addr constant [3 x i8] c"\1B\\\00", align 1
@.str.8 = private unnamed_addr constant [2 x i8] c"\0A\00", align 1

; Function Attrs: nounwind uwtable
define internal void @kitty_write(ptr noundef %0, i64 noundef %1, i32 noundef %2, i32 noundef %3, i1 noundef zeroext %4) #0 {
  %6 = alloca ptr, align 8
  %7 = alloca i64, align 8
  %8 = alloca i32, align 4
  %9 = alloca i32, align 4
  %10 = alloca i8, align 1
  %11 = alloca i64, align 8
  %12 = alloca ptr, align 8
  %13 = alloca i64, align 8
  %14 = alloca i64, align 8
  %15 = alloca i32, align 4
  %16 = alloca i64, align 8
  store ptr %0, ptr %6, align 8, !tbaa !31
  store i64 %1, ptr %7, align 8, !tbaa !34
  store i32 %2, ptr %8, align 4, !tbaa !39
  store i32 %3, ptr %9, align 4, !tbaa !39
  %17 = zext i1 %4 to i8
  store i8 %17, ptr %10, align 1, !tbaa !40
  call void @llvm.lifetime.start.p0(i64 8, ptr %11) #8
  store i64 4096, ptr %11, align 8, !tbaa !34
  call void @llvm.lifetime.start.p0(i64 8, ptr %12) #8
  %18 = load ptr, ptr %6, align 8, !tbaa !31
  %19 = load i64, ptr %7, align 8, !tbaa !34
  %20 = call ptr @gv_base64(ptr noundef %18, i64 noundef %19)
  store ptr %20, ptr %12, align 8, !tbaa !31
  call void @llvm.lifetime.start.p0(i64 8, ptr %13) #8
  store i64 0, ptr %13, align 8, !tbaa !34
  call void @llvm.lifetime.start.p0(i64 8, ptr %14) #8
  %21 = load i64, ptr %7, align 8, !tbaa !34
  %22 = call i64 @gv_base64_size(i64 noundef %21)
  store i64 %22, ptr %14, align 8, !tbaa !34
  br label %23

23:                                               ; preds = %56, %5
  %24 = load i64, ptr %13, align 8, !tbaa !34
  %25 = load i64, ptr %14, align 8, !tbaa !34
  %26 = icmp ult i64 %24, %25
  br i1 %26, label %27, label %67

27:                                               ; preds = %23
  call void @llvm.lifetime.start.p0(i64 4, ptr %15) #8
  %28 = load i64, ptr %13, align 8, !tbaa !34
  %29 = add i64 %28, 4096
  %30 = load i64, ptr %14, align 8, !tbaa !34
  %31 = icmp ule i64 %29, %30
  %32 = zext i1 %31 to i32
  store i32 %32, ptr %15, align 4, !tbaa !39
  %33 = load i64, ptr %13, align 8, !tbaa !34
  %34 = icmp eq i64 %33, 0
  br i1 %34, label %35, label %45

35:                                               ; preds = %27
  %36 = load i32, ptr %8, align 4, !tbaa !39
  %37 = load i32, ptr %9, align 4, !tbaa !39
  %38 = load i64, ptr %14, align 8, !tbaa !34
  %39 = icmp ult i64 4096, %38
  %40 = select i1 %39, ptr @.str.3, ptr @.str.4
  %41 = load i8, ptr %10, align 1, !tbaa !40, !range !41, !noundef !42
  %42 = trunc i8 %41 to i1
  %43 = select i1 %42, ptr @.str.5, ptr @.str.4
  %44 = call i32 (ptr, ...) @printf(ptr noundef @.str.2, i32 noundef %36, i32 noundef %37, ptr noundef %40, ptr noundef %43)
  br label %48

45:                                               ; preds = %27
  %46 = load i32, ptr %15, align 4, !tbaa !39
  %47 = call i32 (ptr, ...) @printf(ptr noundef @.str.6, i32 noundef %46)
  br label %48

48:                                               ; preds = %45, %35
  call void @llvm.lifetime.start.p0(i64 8, ptr %16) #8
  %49 = load i32, ptr %15, align 4, !tbaa !39
  %50 = icmp ne i32 %49, 0
  br i1 %50, label %51, label %52

51:                                               ; preds = %48
  br label %56

52:                                               ; preds = %48
  %53 = load i64, ptr %14, align 8, !tbaa !34
  %54 = load i64, ptr %13, align 8, !tbaa !34
  %55 = sub i64 %53, %54
  br label %56

56:                                               ; preds = %52, %51
  %57 = phi i64 [ 4096, %51 ], [ %55, %52 ]
  store i64 %57, ptr %16, align 8, !tbaa !34
  %58 = load ptr, ptr %12, align 8, !tbaa !31
  %59 = load i64, ptr %13, align 8, !tbaa !34
  %60 = getelementptr inbounds nuw i8, ptr %58, i64 %59
  %61 = load i64, ptr %16, align 8, !tbaa !34
  %62 = load ptr, ptr @stdout, align 8, !tbaa !43
  %63 = call i64 @fwrite(ptr noundef %60, i64 noundef %61, i64 noundef 1, ptr noundef %62)
  %64 = call i32 (ptr, ...) @printf(ptr noundef @.str.7)
  %65 = load i64, ptr %13, align 8, !tbaa !34
  %66 = add i64 %65, 4096
  store i64 %66, ptr %13, align 8, !tbaa !34
  call void @llvm.lifetime.end.p0(i64 8, ptr %16) #8
  call void @llvm.lifetime.end.p0(i64 4, ptr %15) #8
  br label %23, !llvm.loop !44

67:                                               ; preds = %23
  %68 = call i32 (ptr, ...) @printf(ptr noundef @.str.8)
  %69 = load ptr, ptr %12, align 8, !tbaa !31
  call void @free(ptr noundef %69) #8
  call void @llvm.lifetime.end.p0(i64 8, ptr %14) #8
  call void @llvm.lifetime.end.p0(i64 8, ptr %13) #8
  call void @llvm.lifetime.end.p0(i64 8, ptr %12) #8
  call void @llvm.lifetime.end.p0(i64 8, ptr %11) #8
  ret void
}