; Function Attrs: nounwind uwtable
define internal fastcc void @kitty_write(ptr noundef %0, i64 noundef %1, i32 noundef %2, i32 noundef %3, i1 noundef zeroext %4) unnamed_addr #0 {
  %6 = tail call ptr @gv_base64(ptr noundef %0, i64 noundef %1) #9
  %7 = tail call i64 @gv_base64_size(i64 noundef %1) #9
  %.not = icmp eq i64 %7, 0
  br i1 %.not, label %._crit_edge, label %.lr.ph

.lr.ph:                                           ; preds = %5
  %8 = icmp ugt i64 %7, 4096
  %9 = select i1 %8, ptr @.str.3, ptr @.str.4
  %10 = select i1 %4, ptr @.str.5, ptr @.str.4
  br label %11

11:                                               ; preds = %.lr.ph, %20
  %.021 = phi i64 [ 0, %.lr.ph ], [ %12, %20 ]
  %12 = add i64 %.021, 4096
  %13 = icmp ule i64 %12, %7
  %14 = icmp eq i64 %.021, 0
  br i1 %14, label %15, label %17

15:                                               ; preds = %11
  %16 = tail call i32 (ptr, ...) @printf(ptr noundef nonnull dereferenceable(1) @.str.2, i32 noundef %2, i32 noundef %3, ptr noundef nonnull %9, ptr noundef nonnull %10)
  br label %20

17:                                               ; preds = %11
  %18 = zext i1 %13 to i32
  %19 = tail call i32 (ptr, ...) @printf(ptr noundef nonnull dereferenceable(1) @.str.6, i32 noundef %18)
  br label %20

20:                                               ; preds = %17, %15
  %21 = sub i64 %7, %.021
  %22 = select i1 %13, i64 4096, i64 %21
  %23 = getelementptr inbounds nuw i8, ptr %6, i64 %.021
  %24 = load ptr, ptr @stdout, align 8, !tbaa !36
  %25 = tail call i64 @fwrite(ptr noundef %23, i64 noundef %22, i64 noundef 1, ptr noundef %24)
  %26 = tail call i32 (ptr, ...) @printf(ptr noundef nonnull dereferenceable(1) @.str.7)
  %27 = icmp ult i64 %12, %7
  br i1 %27, label %11, label %._crit_edge, !llvm.loop !37

._crit_edge:                                      ; preds = %20, %5
  %putchar = tail call i32 @putchar(i32 10)
  tail call void @free(ptr noundef %6) #9
  ret void
}